target datalayout = "e-m:e-p270:32:32-p271:32:32-p272:64:64-i64:64-i128:128-f80:128-n8:16:32:64-S128"
target triple = "x86_64-pc-linux-gnu"

@.str.2 = private unnamed_addr constant [11 x i8] c"-riscv-cpu\00", align 1

; Function Attrs: nounwind sspstrong uwtable
define dso_local ptr @cpu_model_from_type(ptr noundef %0) #0 {
  %2 = alloca ptr, align 8
  %3 = alloca ptr, align 8
  %4 = alloca ptr, align 8
  %5 = alloca i32, align 4
  store ptr %0, ptr %3, align 8
  call void @llvm.lifetime.start.p0(i64 8, ptr %4) #16
  store ptr @.str.2, ptr %4, align 8
  %6 = load ptr, ptr %3, align 8
  %7 = call ptr @object_class_by_name(ptr noundef %6)
  %8 = icmp ne ptr %7, null
  br i1 %8, label %10, label %9

9:                                                ; preds = %1
  store ptr null, ptr %2, align 8
  store i32 1, ptr %5, align 4
  br label %26

10:                                               ; preds = %1
  %11 = load ptr, ptr %3, align 8
  %12 = load ptr, ptr %4, align 8
  %13 = call i32 @g_str_has_suffix(ptr noundef %11, ptr noundef %12)
  %14 = icmp ne i32 %13, 0
  br i1 %14, label %15, label %23

15:                                               ; preds = %10
  %16 = load ptr, ptr %3, align 8
  %17 = load ptr, ptr %3, align 8
  %18 = call i64 @strlen(ptr noundef %17) #18
  %19 = load ptr, ptr %4, align 8
  %20 = call i64 @strlen(ptr noundef %19) #18
  %21 = sub i64 %18, %20
  %22 = call noalias ptr @g_strndup(ptr noundef %16, i64 noundef %21)
  store ptr %22, ptr %2, align 8
  store i32 1, ptr %5, align 4
  br label %26

23:                                               ; preds = %10
  %24 = load ptr, ptr %3, align 8
  %25 = call noalias ptr @g_strdup(ptr noundef %24)
  store ptr %25, ptr %2, align 8
  store i32 1, ptr %5, align 4
  br label %26

26:                                               ; preds = %23, %15, %9
  call void @llvm.lifetime.end.p0(i64 8, ptr %4) #16
  %27 = load ptr, ptr %2, align 8
  ret ptr %27
}