; Function Attrs: nounwind sspstrong uwtable
define dso_local noalias ptr @cpu_model_from_type(ptr noundef %0) local_unnamed_addr #0 {
  %2 = tail call ptr @object_class_by_name(ptr noundef %0) #17
  %.not = icmp eq ptr %2, null
  br i1 %.not, label %11, label %3

3:                                                ; preds = %1
  %4 = tail call i32 @g_str_has_suffix(ptr noundef %0, ptr noundef nonnull @.str.2) #17
  %.not8 = icmp eq i32 %4, 0
  br i1 %.not8, label %9, label %5

5:                                                ; preds = %3
  %6 = tail call i64 @strlen(ptr noundef nonnull dereferenceable(1) %0) #19
  %7 = add i64 %6, -10
  %8 = tail call noalias ptr @g_strndup(ptr noundef nonnull %0, i64 noundef %7) #17
  br label %11

9:                                                ; preds = %3
  %10 = tail call noalias ptr @g_strdup(ptr noundef %0) #17
  br label %11

11:                                               ; preds = %1, %9, %5
  %.0 = phi ptr [ %8, %5 ], [ %10, %9 ], [ null, %1 ]
  ret ptr %.0
}